target datalayout = "e-m:e-p270:32:32-p271:32:32-p272:64:64-i64:64-i128:128-f80:128-n8:16:32:64-S128"
target triple = "x86_64-unknown-linux-gnu"

%class.TestDataModule = type { ptr, ptr, ptr, ptr }
%class.RBTestDataModule = type <{ %class.TestDataModule, ptr, ptr, ptr, i8, [7 x i8], ptr, i32, [4 x i8] }>

@.str.11 = private unnamed_addr constant [8 x i8] c"Headers\00", align 1

; Function Attrs: mustprogress nounwind uwtable
define internal noundef signext i8 @_ZL9U_SUCCESS10UErrorCode(i32 noundef %code) #0 {
entry:
  %code.addr = alloca i32, align 4
  store i32 %code, ptr %code.addr, align 4
  %0 = load i32, ptr %code.addr, align 4
  %cmp = icmp sle i32 %0, 0
  %conv = zext i1 %cmp to i8
  ret i8 %conv
}

; Function Attrs: mustprogress uwtable
define noundef ptr @_ZNK16RBTestDataModule14createTestDataEPKcR10UErrorCode(ptr noundef nonnull align 8 dereferenceable(76) %this, ptr noundef %name, ptr noundef nonnull align 4 dereferenceable(4) %status) unnamed_addr #1 align 2 personality ptr @__gxx_personality_v0 {
entry:
  %retval = alloca ptr, align 8
  %this.addr = alloca ptr, align 8
  %name.addr = alloca ptr, align 8
  %status.addr = alloca ptr, align 8
  %result = alloca ptr, align 8
  %intStatus = alloca i32, align 4
  %DataFillIn = alloca ptr, align 8
  %headers = alloca ptr, align 8
  %exn.slot = alloca ptr, align 8
  %ehselector.slot = alloca i32, align 4
  store ptr %this, ptr %this.addr, align 8
  store ptr %name, ptr %name.addr, align 8
  store ptr %status, ptr %status.addr, align 8
  %this1 = load ptr, ptr %this.addr, align 8
  store ptr null, ptr %result, align 8
  store i32 0, ptr %intStatus, align 4
  %fDataTestValid = getelementptr inbounds %class.RBTestDataModule, ptr %this1, i32 0, i32 4
  %0 = load i8, ptr %fDataTestValid, align 8
  %conv = sext i8 %0 to i32
  %cmp = icmp eq i32 %conv, 1
  br i1 %cmp, label %if.then, label %if.else11

if.then:                                          ; preds = %entry
  %fTestData = getelementptr inbounds %class.RBTestDataModule, ptr %this1, i32 0, i32 2
  %1 = load ptr, ptr %fTestData, align 8
  %2 = load ptr, ptr %name.addr, align 8
  %3 = load ptr, ptr %status.addr, align 8
  %call = call ptr @ures_getByKey_75(ptr noundef %1, ptr noundef %2, ptr noundef null, ptr noundef %3)
  store ptr %call, ptr %DataFillIn, align 8
  %fInfoRB = getelementptr inbounds %class.RBTestDataModule, ptr %this1, i32 0, i32 3
  %4 = load ptr, ptr %fInfoRB, align 8
  %call2 = call ptr @ures_getByKey_75(ptr noundef %4, ptr noundef @.str.11, ptr noundef null, ptr noundef %intStatus)
  store ptr %call2, ptr %headers, align 8
  %5 = load ptr, ptr %status.addr, align 8
  %6 = load i32, ptr %5, align 4
  %call3 = call noundef signext i8 @_ZL9U_SUCCESS10UErrorCode(i32 noundef %6)
  %tobool = icmp ne i8 %call3, 0
  br i1 %tobool, label %if.then4, label %if.else9

if.then4:                                         ; preds = %if.then
  %call5 = call noalias noundef nonnull ptr @_Znwm(i64 noundef 88) #14
  %7 = load ptr, ptr %DataFillIn, align 8
  %8 = load ptr, ptr %headers, align 8
  %9 = load ptr, ptr %status.addr, align 8
  invoke void @_ZN10RBTestDataC1EP15UResourceBundleS1_R10UErrorCode(ptr noundef nonnull align 8 dereferenceable(88) %call5, ptr noundef %7, ptr noundef %8, ptr noundef nonnull align 4 dereferenceable(4) %9)
          to label %invoke.cont unwind label %lpad

invoke.cont:                                      ; preds = %if.then4
  store ptr %call5, ptr %result, align 8
  %10 = load ptr, ptr %status.addr, align 8
  %11 = load i32, ptr %10, align 4
  %call6 = call noundef signext i8 @_ZL9U_SUCCESS10UErrorCode(i32 noundef %11)
  %tobool7 = icmp ne i8 %call6, 0
  br i1 %tobool7, label %if.then8, label %if.else

if.then8:                                         ; preds = %invoke.cont
  %12 = load ptr, ptr %result, align 8
  store ptr %12, ptr %retval, align 8
  br label %return

lpad:                                             ; preds = %if.then4
  %13 = landingpad { ptr, i32 }
          cleanup
  %14 = extractvalue { ptr, i32 } %13, 0
  store ptr %14, ptr %exn.slot, align 8
  %15 = extractvalue { ptr, i32 } %13, 1
  store i32 %15, ptr %ehselector.slot, align 4
  call void @_ZdlPv(ptr noundef %call5) #15
  br label %eh.resume

if.else:                                          ; preds = %invoke.cont
  %16 = load ptr, ptr %result, align 8
  %isnull = icmp eq ptr %16, null
  br i1 %isnull, label %delete.end, label %delete.notnull

delete.notnull:                                   ; preds = %if.else
  %vtable = load ptr, ptr %16, align 8
  %vfn = getelementptr inbounds ptr, ptr %vtable, i64 1
  %17 = load ptr, ptr %vfn, align 8
  call void %17(ptr noundef nonnull align 8 dereferenceable(56) %16) #11
  br label %delete.end

delete.end:                                       ; preds = %delete.notnull, %if.else
  br label %if.end

if.end:                                           ; preds = %delete.end
  br label %if.end10

if.else9:                                         ; preds = %if.then
  %18 = load ptr, ptr %DataFillIn, align 8
  call void @ures_close_75(ptr noundef %18)
  %19 = load ptr, ptr %headers, align 8
  call void @ures_close_75(ptr noundef %19)
  br label %if.end10

if.end10:                                         ; preds = %if.else9, %if.end
  br label %if.end12

if.else11:                                        ; preds = %entry
  %20 = load ptr, ptr %status.addr, align 8
  store i32 2, ptr %20, align 4
  br label %if.end12

if.end12:                                         ; preds = %if.else11, %if.end10
  store ptr null, ptr %retval, align 8
  br label %return

return:                                           ; preds = %if.end12, %if.then8
  %21 = load ptr, ptr %retval, align 8
  ret ptr %21

eh.resume:                                        ; preds = %lpad
  %exn = load ptr, ptr %exn.slot, align 8
  %sel = load i32, ptr %ehselector.slot, align 4
  %lpad.val = insertvalue { ptr, i32 } poison, ptr %exn, 0
  %lpad.val13 = insertvalue { ptr, i32 } %lpad.val, i32 %sel, 1
  resume { ptr, i32 } %lpad.val13
}