; Function Attrs: mustprogress uwtable
define noundef ptr @_ZNK16RBTestDataModule14createTestDataEPKcR10UErrorCode(ptr nocapture noundef nonnull readonly align 8 dereferenceable(76) %this, ptr noundef %name, ptr noundef nonnull align 4 dereferenceable(4) %status) unnamed_addr #1 align 2 personality ptr @__gxx_personality_v0 {
entry:
  %intStatus = alloca i32, align 4
  store i32 0, ptr %intStatus, align 4
  %fDataTestValid = getelementptr inbounds i8, ptr %this, i64 56
  %0 = load i8, ptr %fDataTestValid, align 8
  %cmp = icmp eq i8 %0, 1
  br i1 %cmp, label %if.then, label %if.else11

if.then:                                          ; preds = %entry
  %fTestData = getelementptr inbounds i8, ptr %this, i64 40
  %1 = load ptr, ptr %fTestData, align 8
  %call = tail call ptr @ures_getByKey_75(ptr noundef %1, ptr noundef %name, ptr noundef null, ptr noundef nonnull %status)
  %fInfoRB = getelementptr inbounds i8, ptr %this, i64 48
  %2 = load ptr, ptr %fInfoRB, align 8
  %call2 = call ptr @ures_getByKey_75(ptr noundef %2, ptr noundef nonnull @.str.11, ptr noundef null, ptr noundef nonnull %intStatus)
  %3 = load i32, ptr %status, align 4
  %cmp.i = icmp sgt i32 %3, 0
  br i1 %cmp.i, label %if.else9, label %if.then4

if.then4:                                         ; preds = %if.then
  %call5 = call noalias noundef nonnull dereferenceable(88) ptr @_Znwm(i64 noundef 88) #23
  invoke void @_ZN10RBTestDataC1EP15UResourceBundleS1_R10UErrorCode(ptr noundef nonnull align 8 dereferenceable(88) %call5, ptr noundef %call, ptr noundef %call2, ptr noundef nonnull align 4 dereferenceable(4) %status)
          to label %invoke.cont unwind label %lpad

invoke.cont:                                      ; preds = %if.then4
  %4 = load i32, ptr %status, align 4
  %cmp.i8 = icmp sgt i32 %4, 0
  br i1 %cmp.i8, label %delete.notnull, label %return

lpad:                                             ; preds = %if.then4
  %5 = landingpad { ptr, i32 }
          cleanup
  call void @_ZdlPv(ptr noundef nonnull %call5) #24
  resume { ptr, i32 } %5

delete.notnull:                                   ; preds = %invoke.cont
  %vtable = load ptr, ptr %call5, align 8
  %vfn = getelementptr inbounds i8, ptr %vtable, i64 8
  %6 = load ptr, ptr %vfn, align 8
  call void %6(ptr noundef nonnull align 8 dereferenceable(56) %call5) #20
  br label %return

if.else9:                                         ; preds = %if.then
  call void @ures_close_75(ptr noundef %call)
  call void @ures_close_75(ptr noundef %call2)
  br label %return

if.else11:                                        ; preds = %entry
  store i32 2, ptr %status, align 4
  br label %return

return:                                           ; preds = %if.else11, %delete.notnull, %if.else9, %invoke.cont
  %retval.0 = phi ptr [ %call5, %invoke.cont ], [ null, %if.else9 ], [ null, %delete.notnull ], [ null, %if.else11 ]
  ret ptr %retval.0
}